; Function Attrs: nounwind uwtable
define range(i32 -1, 1) i32 @H5Sencode2(i64 noundef %0, ptr noundef %1, ptr noundef captures(none) %2, i64 noundef %3) local_unnamed_addr #0 {
  %5 = alloca ptr, align 8
  %6 = alloca i64, align 8
  %7 = alloca %struct.H5CX_node_t, align 8
  store ptr %1, ptr %5, align 8, !tbaa !51
  store i64 %3, ptr %6, align 8, !tbaa !10
  call void @llvm.lifetime.start.p0(i64 480, ptr nonnull %7) #10
  call void @llvm.memset.p0.i64(ptr noundef nonnull align 8 dereferenceable(480) %7, i8 0, i64 480, i1 false)
  %8 = load i8, ptr @H5_libinit_g, align 1, !tbaa !3, !range !7, !noundef !8
  %9 = trunc nuw i8 %8 to i1
  %10 = load i8, ptr @H5_libterm_g, align 1, !range !7
  %11 = trunc nuw i8 %10 to i1
  %12 = select i1 %9, i1 true, i1 %11
  br i1 %12, label %20, label %13, !prof !9

13:                                               ; preds = %4
  %14 = tail call i32 @H5_init_library() #10
  %15 = icmp slt i32 %14, 0
  br i1 %15, label %16, label %._crit_edge, !prof !31

._crit_edge:                                      ; preds = %13
  %.pre = load i8, ptr @H5_libterm_g, align 1, !range !7
  br label %20

16:                                               ; preds = %13
  %17 = load i64, ptr @H5E_FUNC_g, align 8, !tbaa !10
  %18 = load i64, ptr @H5E_CANTINIT_g, align 8, !tbaa !10
  %19 = tail call i32 (ptr, ptr, i32, i64, i64, ptr, ...) @H5E_printf_stack(ptr noundef nonnull @.str.3, ptr noundef nonnull @__func__.H5Sencode2, i32 noundef 1429, i64 noundef %17, i64 noundef %18, ptr noundef nonnull @.str.11) #10
  br label %.thread22

20:                                               ; preds = %._crit_edge, %4
  %21 = phi i8 [ %.pre, %._crit_edge ], [ %10, %4 ]
  %22 = load i8, ptr @H5S_init_g, align 1, !tbaa !3, !range !7, !noundef !8
  %23 = trunc nuw i8 %22 to i1
  %24 = trunc nuw i8 %21 to i1
  %25 = select i1 %23, i1 true, i1 %24
  br i1 %25, label %33, label %26, !prof !9

26:                                               ; preds = %20
  store i8 1, ptr @H5S_init_g, align 1, !tbaa !3
  %27 = tail call i32 @H5S__init_package()
  %28 = icmp slt i32 %27, 0
  br i1 %28, label %29, label %33, !prof !33

29:                                               ; preds = %26
  store i8 0, ptr @H5S_init_g, align 1, !tbaa !3
  %30 = load i64, ptr @H5E_FUNC_g, align 8, !tbaa !10
  %31 = load i64, ptr @H5E_CANTINIT_g, align 8, !tbaa !10
  %32 = tail call i32 (ptr, ptr, i32, i64, i64, ptr, ...) @H5E_printf_stack(ptr noundef nonnull @.str.3, ptr noundef nonnull @__func__.H5Sencode2, i32 noundef 1429, i64 noundef %30, i64 noundef %31, ptr noundef nonnull @.str.4) #10
  br label %.thread22

33:                                               ; preds = %20, %26
  %34 = call i32 @H5CX_push(ptr noundef nonnull %7) #10
  %35 = icmp slt i32 %34, 0
  br i1 %35, label %36, label %40, !prof !31

36:                                               ; preds = %33
  %37 = load i64, ptr @H5E_FUNC_g, align 8, !tbaa !10
  %38 = load i64, ptr @H5E_CANTSET_g, align 8, !tbaa !10
  %39 = call i32 (ptr, ptr, i32, i64, i64, ptr, ...) @H5E_printf_stack(ptr noundef nonnull @.str.3, ptr noundef nonnull @__func__.H5Sencode2, i32 noundef 1429, i64 noundef %37, i64 noundef %38, ptr noundef nonnull @.str.12) #10
  br label %.thread22

40:                                               ; preds = %33
  %41 = call i32 @H5E_clear_stack() #10
  %42 = call ptr @H5I_object_verify(i64 noundef %0, i32 noundef 4) #10
  %43 = icmp eq ptr %42, null
  br i1 %43, label %44, label %48, !prof !34

44:                                               ; preds = %40
  %45 = load i64, ptr @H5E_ARGS_g, align 8, !tbaa !10
  %46 = load i64, ptr @H5E_BADTYPE_g, align 8, !tbaa !10
  %47 = call i32 (ptr, ptr, i32, i64, i64, ptr, ...) @H5E_printf_stack(ptr noundef nonnull @.str.3, ptr noundef nonnull @__func__.H5Sencode2, i32 noundef 1433, i64 noundef %45, i64 noundef %46, ptr noundef nonnull @.str.18) #10
  br label %.thread28

48:                                               ; preds = %40
  %49 = call i32 @H5CX_set_apl(ptr noundef nonnull %6, ptr noundef nonnull @H5P_CLS_FACC, i64 noundef -1, i1 noundef zeroext true) #10
  %50 = icmp slt i32 %49, 0
  br i1 %50, label %51, label %55, !prof !34

51:                                               ; preds = %48
  %52 = load i64, ptr @H5E_FILE_g, align 8, !tbaa !10
  %53 = load i64, ptr @H5E_CANTSET_g, align 8, !tbaa !10
  %54 = call i32 (ptr, ptr, i32, i64, i64, ptr, ...) @H5E_printf_stack(ptr noundef nonnull @.str.3, ptr noundef nonnull @__func__.H5Sencode2, i32 noundef 1437, i64 noundef %52, i64 noundef %53, ptr noundef nonnull @.str.44) #10
  br label %.thread28

55:                                               ; preds = %48
  %56 = call i32 @H5S_encode(ptr noundef nonnull %42, ptr noundef nonnull %5, ptr noundef %2)
  %57 = icmp slt i32 %56, 0
  br i1 %57, label %58, label %63, !prof !34

58:                                               ; preds = %55
  %59 = load i64, ptr @H5E_DATASPACE_g, align 8, !tbaa !10
  %60 = load i64, ptr @H5E_CANTENCODE_g, align 8, !tbaa !10
  %61 = call i32 (ptr, ptr, i32, i64, i64, ptr, ...) @H5E_printf_stack(ptr noundef nonnull @.str.3, ptr noundef nonnull @__func__.H5Sencode2, i32 noundef 1440, i64 noundef %59, i64 noundef %60, ptr noundef nonnull @.str.45) #10
  br label %.thread28

.thread28:                                        ; preds = %58, %51, %44
  %62 = call i32 @H5CX_pop(i1 noundef zeroext true) #10
  br label %.thread22

63:                                               ; preds = %55
  %64 = call i32 @H5CX_pop(i1 noundef zeroext true) #10
  br label %66

.thread22:                                        ; preds = %36, %29, %16, %.thread28
  %65 = call i32 @H5E_dump_api_stack() #10
  br label %66

66:                                               ; preds = %63, %.thread22
  %.0121725 = phi i32 [ -1, %.thread22 ], [ 0, %63 ]
  call void @llvm.lifetime.end.p0(i64 480, ptr nonnull %7) #10
  ret i32 %.0121725
}